; Function Attrs: mustprogress uwtable
define hidden void @_ZN4cvc54main15CommandExecutor17setOptionInternalERKNSt7__cxx1112basic_stringIcSt11char_traitsIcESaIcEEES9_(ptr nocapture noundef nonnull readonly align 8 dereferenceable(41) %this, ptr noundef nonnull align 8 dereferenceable(32) %key, ptr noundef nonnull align 8 dereferenceable(32) %value) local_unnamed_addr #4 align 2 {
entry:
  %d_solver = getelementptr inbounds i8, ptr %this, i64 8
  %0 = load ptr, ptr %d_solver, align 8
  %1 = load ptr, ptr %0, align 8
  %d_slv = getelementptr inbounds i8, ptr %1, i64 24
  %2 = load ptr, ptr %d_slv, align 8
  tail call void @_ZN4cvc58internal12SolverEngine9setOptionERKNSt7__cxx1112basic_stringIcSt11char_traitsIcESaIcEEES9_b(ptr noundef nonnull align 8 dereferenceable(224) %2, ptr noundef nonnull align 8 dereferenceable(32) %key, ptr noundef nonnull align 8 dereferenceable(32) %value, i1 noundef zeroext false)
  ret void
}